target datalayout = "e-m:e-p270:32:32-p271:32:32-p272:64:64-i64:64-i128:128-f80:128-n8:16:32:64-S128"
target triple = "x86_64-pc-linux-gnu"

%struct.uv__io_s = type { ptr, [2 x ptr], [2 x ptr], i32, i32, i32 }
%struct.uv_stream_s = type { ptr, ptr, i32, ptr, [2 x ptr], %union.anon, ptr, i32, i64, ptr, ptr, ptr, ptr, %struct.uv__io_s, [2 x ptr], [2 x ptr], ptr, i32, i32, ptr }
%union.anon = type { [4 x ptr] }

; Function Attrs: nounwind uwtable
define dso_local i32 @uv__stream_open(ptr noundef %0, i32 noundef %1, i32 noundef %2) #0 {
  %4 = alloca i32, align 4
  %5 = alloca ptr, align 8
  %6 = alloca i32, align 4
  %7 = alloca i32, align 4
  store ptr %0, ptr %5, align 8
  store i32 %1, ptr %6, align 4
  store i32 %2, ptr %7, align 4
  %8 = load ptr, ptr %5, align 8
  %9 = getelementptr inbounds %struct.uv_stream_s, ptr %8, i32 0, i32 13
  %10 = getelementptr inbounds %struct.uv__io_s, ptr %9, i32 0, i32 5
  %11 = load i32, ptr %10, align 8
  %12 = icmp eq i32 %11, -1
  br i1 %12, label %21, label %13

13:                                               ; preds = %3
  %14 = load ptr, ptr %5, align 8
  %15 = getelementptr inbounds %struct.uv_stream_s, ptr %14, i32 0, i32 13
  %16 = getelementptr inbounds %struct.uv__io_s, ptr %15, i32 0, i32 5
  %17 = load i32, ptr %16, align 8
  %18 = load i32, ptr %6, align 4
  %19 = icmp eq i32 %17, %18
  br i1 %19, label %21, label %20

20:                                               ; preds = %13
  store i32 -16, ptr %4, align 4
  br label %65

21:                                               ; preds = %13, %3
  %22 = load i32, ptr %7, align 4
  %23 = load ptr, ptr %5, align 8
  %24 = getelementptr inbounds %struct.uv_stream_s, ptr %23, i32 0, i32 7
  %25 = load i32, ptr %24, align 8
  %26 = or i32 %25, %22
  store i32 %26, ptr %24, align 8
  %27 = load ptr, ptr %5, align 8
  %28 = getelementptr inbounds %struct.uv_stream_s, ptr %27, i32 0, i32 2
  %29 = load i32, ptr %28, align 8
  %30 = icmp eq i32 %29, 12
  br i1 %30, label %31, label %60

31:                                               ; preds = %21
  %32 = load ptr, ptr %5, align 8
  %33 = getelementptr inbounds %struct.uv_stream_s, ptr %32, i32 0, i32 7
  %34 = load i32, ptr %33, align 8
  %35 = and i32 %34, 16777216
  %36 = icmp ne i32 %35, 0
  br i1 %36, label %37, label %45

37:                                               ; preds = %31
  %38 = load i32, ptr %6, align 4
  %39 = call i32 @uv__tcp_nodelay(i32 noundef %38, i32 noundef 1)
  %40 = icmp ne i32 %39, 0
  br i1 %40, label %41, label %45

41:                                               ; preds = %37
  %42 = call ptr @__errno_location() #6
  %43 = load i32, ptr %42, align 4
  %44 = sub nsw i32 0, %43
  store i32 %44, ptr %4, align 4
  br label %65

45:                                               ; preds = %37, %31
  %46 = load ptr, ptr %5, align 8
  %47 = getelementptr inbounds %struct.uv_stream_s, ptr %46, i32 0, i32 7
  %48 = load i32, ptr %47, align 8
  %49 = and i32 %48, 33554432
  %50 = icmp ne i32 %49, 0
  br i1 %50, label %51, label %59

51:                                               ; preds = %45
  %52 = load i32, ptr %6, align 4
  %53 = call i32 @uv__tcp_keepalive(i32 noundef %52, i32 noundef 1, i32 noundef 60)
  %54 = icmp ne i32 %53, 0
  br i1 %54, label %55, label %59

55:                                               ; preds = %51
  %56 = call ptr @__errno_location() #6
  %57 = load i32, ptr %56, align 4
  %58 = sub nsw i32 0, %57
  store i32 %58, ptr %4, align 4
  br label %65

59:                                               ; preds = %51, %45
  br label %60

60:                                               ; preds = %59, %21
  %61 = load i32, ptr %6, align 4
  %62 = load ptr, ptr %5, align 8
  %63 = getelementptr inbounds %struct.uv_stream_s, ptr %62, i32 0, i32 13
  %64 = getelementptr inbounds %struct.uv__io_s, ptr %63, i32 0, i32 5
  store i32 %61, ptr %64, align 8
  store i32 0, ptr %4, align 4
  br label %65

65:                                               ; preds = %60, %55, %41, %20
  %66 = load i32, ptr %4, align 4
  ret i32 %66
}